target datalayout = "e-m:e-p270:32:32-p271:32:32-p272:64:64-i64:64-i128:128-f80:128-n8:16:32:64-S128"
target triple = "x86_64-pc-linux-gnu"

%struct.check = type { ptr, ptr }

@.str.13 = private unnamed_addr constant [8 x i8] c"[%s]...\00", align 1
@.str.14 = private unnamed_addr constant [9 x i8] c"skipped\0A\00", align 1
@.str.15 = private unnamed_addr constant [4 x i8] c"OK\0A\00", align 1
@.str.16 = private unnamed_addr constant [10 x i8] c"WARNING:\0A\00", align 1
@.str.17 = private unnamed_addr constant [4 x i8] c"%s\0A\00", align 1

; Function Attrs: nounwind uwtable
define dso_local i32 @syscheck() #0 {
  %1 = alloca ptr, align 8
  %2 = alloca i32, align 4
  %3 = alloca ptr, align 8
  %4 = alloca i32, align 4
  call void @llvm.lifetime.start.p0(i64 8, ptr %1) #5
  store ptr @checks, ptr %1, align 8, !tbaa !29
  call void @llvm.lifetime.start.p0(i64 4, ptr %2) #5
  store i32 1, ptr %2, align 4, !tbaa !12
  call void @llvm.lifetime.start.p0(i64 8, ptr %3) #5
  store ptr null, ptr %3, align 8, !tbaa !10
  br label %5

5:                                                ; preds = %34, %0
  %6 = load ptr, ptr %1, align 8, !tbaa !29
  %7 = getelementptr inbounds nuw %struct.check, ptr %6, i32 0, i32 1
  %8 = load ptr, ptr %7, align 8, !tbaa !30
  %9 = icmp ne ptr %8, null
  br i1 %9, label %10, label %37

10:                                               ; preds = %5
  call void @llvm.lifetime.start.p0(i64 4, ptr %4) #5
  %11 = load ptr, ptr %1, align 8, !tbaa !29
  %12 = getelementptr inbounds nuw %struct.check, ptr %11, i32 0, i32 1
  %13 = load ptr, ptr %12, align 8, !tbaa !30
  %14 = call i32 %13(ptr noundef %3)
  store i32 %14, ptr %4, align 4, !tbaa !12
  %15 = load ptr, ptr %1, align 8, !tbaa !29
  %16 = getelementptr inbounds nuw %struct.check, ptr %15, i32 0, i32 0
  %17 = load ptr, ptr %16, align 8, !tbaa !32
  %18 = call i32 (ptr, ...) @printf(ptr noundef @.str.13, ptr noundef %17)
  %19 = load i32, ptr %4, align 4, !tbaa !12
  %20 = icmp eq i32 %19, 0
  br i1 %20, label %21, label %23

21:                                               ; preds = %10
  %22 = call i32 (ptr, ...) @printf(ptr noundef @.str.14)
  br label %34

23:                                               ; preds = %10
  %24 = load i32, ptr %4, align 4, !tbaa !12
  %25 = icmp eq i32 %24, 1
  br i1 %25, label %26, label %28

26:                                               ; preds = %23
  %27 = call i32 (ptr, ...) @printf(ptr noundef @.str.15)
  br label %33

28:                                               ; preds = %23
  %29 = call i32 (ptr, ...) @printf(ptr noundef @.str.16)
  %30 = load ptr, ptr %3, align 8, !tbaa !10
  %31 = call i32 (ptr, ...) @printf(ptr noundef @.str.17, ptr noundef %30)
  %32 = load ptr, ptr %3, align 8, !tbaa !10
  call void @sdsfree(ptr noundef %32)
  store i32 0, ptr %2, align 4, !tbaa !12
  br label %33

33:                                               ; preds = %28, %26
  br label %34

34:                                               ; preds = %33, %21
  %35 = load ptr, ptr %1, align 8, !tbaa !29
  %36 = getelementptr inbounds nuw %struct.check, ptr %35, i32 1
  store ptr %36, ptr %1, align 8, !tbaa !29
  call void @llvm.lifetime.end.p0(i64 4, ptr %4) #5
  br label %5, !llvm.loop !33

37:                                               ; preds = %5
  %38 = load i32, ptr %2, align 4, !tbaa !12
  call void @llvm.lifetime.end.p0(i64 8, ptr %3) #5
  call void @llvm.lifetime.end.p0(i64 4, ptr %2) #5
  call void @llvm.lifetime.end.p0(i64 8, ptr %1) #5
  ret i32 %38
}