; Function Attrs: nounwind uwtable
define dso_local range(i32 0, 2) i32 @syscheck() local_unnamed_addr #0 {
  %1 = alloca ptr, align 8
  call void @llvm.lifetime.start.p0(i64 8, ptr nonnull %1) #8
  store ptr null, ptr %1, align 8, !tbaa !5
  %2 = load ptr, ptr getelementptr inbounds nuw (i8, ptr @checks, i64 8), align 8, !tbaa !20
  %.not12 = icmp eq ptr %2, null
  br i1 %.not12, label %._crit_edge, label %.lr.ph

.lr.ph:                                           ; preds = %0, %12
  %3 = phi ptr [ %15, %12 ], [ %2, %0 ]
  %.014 = phi ptr [ %13, %12 ], [ @checks, %0 ]
  %.0613 = phi i32 [ %.1, %12 ], [ 1, %0 ]
  %4 = call i32 %3(ptr noundef nonnull %1) #8
  %5 = load ptr, ptr %.014, align 8, !tbaa !22
  %6 = call i32 (ptr, ...) @printf(ptr noundef nonnull dereferenceable(1) @.str.13, ptr noundef %5)
  switch i32 %4, label %9 [
    i32 0, label %7
    i32 1, label %8
  ]

7:                                                ; preds = %.lr.ph
  %puts11 = call i32 @puts(ptr nonnull dereferenceable(1) @str.2)
  br label %12

8:                                                ; preds = %.lr.ph
  %puts10 = call i32 @puts(ptr nonnull dereferenceable(1) @str.1)
  br label %12

9:                                                ; preds = %.lr.ph
  %puts = call i32 @puts(ptr nonnull dereferenceable(1) @str)
  %10 = load ptr, ptr %1, align 8, !tbaa !5
  %puts9 = call i32 @puts(ptr nonnull dereferenceable(1) %10)
  %11 = load ptr, ptr %1, align 8, !tbaa !5
  call void @sdsfree(ptr noundef %11) #8
  br label %12

12:                                               ; preds = %8, %9, %7
  %.1 = phi i32 [ %.0613, %7 ], [ %.0613, %8 ], [ 0, %9 ]
  %13 = getelementptr inbounds nuw i8, ptr %.014, i64 16
  %14 = getelementptr inbounds nuw i8, ptr %.014, i64 24
  %15 = load ptr, ptr %14, align 8, !tbaa !20
  %.not = icmp eq ptr %15, null
  br i1 %.not, label %._crit_edge, label %.lr.ph, !llvm.loop !23

._crit_edge:                                      ; preds = %12, %0
  %.06.lcssa = phi i32 [ 1, %0 ], [ %.1, %12 ]
  call void @llvm.lifetime.end.p0(i64 8, ptr nonnull %1) #8
  ret i32 %.06.lcssa
}